; Function Attrs: nounwind uwtable
define noalias noundef ptr @Abc_NtkPrecomputeFirsts(ptr noundef readonly captures(none) %0, i32 noundef %1) local_unnamed_addr #0 {
  %3 = tail call noalias dereferenceable_or_null(16) ptr @malloc(i64 noundef 16) #12
  %4 = getelementptr inbounds nuw i8, ptr %3, i64 4
  store i32 16, ptr %3, align 8, !tbaa !10
  %5 = tail call noalias dereferenceable_or_null(64) ptr @malloc(i64 noundef 64) #12
  %6 = getelementptr inbounds nuw i8, ptr %3, i64 8
  store ptr %5, ptr %6, align 8, !tbaa !11
  store i32 2, ptr %4, align 4, !tbaa !3
  %.not.i = icmp eq ptr %5, null
  br i1 %.not.i, label %Vec_IntStartFull.exit, label %7

7:                                                ; preds = %2
  store i64 -1, ptr %5, align 4
  br label %Vec_IntStartFull.exit

Vec_IntStartFull.exit:                            ; preds = %2, %7
  %8 = icmp sgt i32 %1, 2
  br i1 %8, label %.lr.ph.preheader, label %._crit_edge

.lr.ph.preheader:                                 ; preds = %Vec_IntStartFull.exit
  %wide.trip.count = zext nneg i32 %1 to i64
  br label %.lr.ph

.lr.ph:                                           ; preds = %.lr.ph.preheader, %Vec_IntPush.exit
  %9 = phi ptr [ %5, %.lr.ph.preheader ], [ %.pre.i13, %Vec_IntPush.exit ]
  %indvars.iv = phi i64 [ 2, %.lr.ph.preheader ], [ %indvars.iv.next, %Vec_IntPush.exit ]
  %.089 = phi i32 [ 0, %.lr.ph.preheader ], [ %36, %Vec_IntPush.exit ]
  %10 = load i32, ptr %4, align 4, !tbaa !3
  %11 = load i32, ptr %3, align 8, !tbaa !10
  %12 = icmp eq i32 %10, %11
  br i1 %12, label %13, label %Vec_IntPush.exit

13:                                               ; preds = %.lr.ph
  %14 = icmp slt i32 %10, 16
  br i1 %14, label %15, label %20

15:                                               ; preds = %13
  %.not9.i.i = icmp eq ptr %9, null
  br i1 %.not9.i.i, label %18, label %16

16:                                               ; preds = %15
  %17 = tail call dereferenceable_or_null(64) ptr @realloc(ptr noundef nonnull %9, i64 noundef 64) #14
  br label %Vec_IntPush.exit.sink.split

18:                                               ; preds = %15
  %19 = tail call noalias dereferenceable_or_null(64) ptr @malloc(i64 noundef 64) #12
  br label %Vec_IntPush.exit.sink.split

20:                                               ; preds = %13
  %21 = shl nuw nsw i32 %10, 1
  %.not9.i9.i = icmp eq ptr %9, null
  %22 = zext nneg i32 %21 to i64
  %23 = shl nuw nsw i64 %22, 2
  br i1 %.not9.i9.i, label %26, label %24

24:                                               ; preds = %20
  %25 = tail call ptr @realloc(ptr noundef nonnull %9, i64 noundef %23) #14
  br label %Vec_IntPush.exit.sink.split

26:                                               ; preds = %20
  %27 = tail call noalias ptr @malloc(i64 noundef %23) #12
  br label %Vec_IntPush.exit.sink.split

Vec_IntPush.exit.sink.split:                      ; preds = %24, %26, %16, %18
  %.sink14 = phi ptr [ %17, %16 ], [ %19, %18 ], [ %25, %24 ], [ %27, %26 ]
  %.sink = phi i32 [ 16, %16 ], [ 16, %18 ], [ %21, %24 ], [ %21, %26 ]
  store ptr %.sink14, ptr %6, align 8, !tbaa !11
  store i32 %.sink, ptr %3, align 8, !tbaa !10
  br label %Vec_IntPush.exit

Vec_IntPush.exit:                                 ; preds = %Vec_IntPush.exit.sink.split, %.lr.ph
  %.pre.i13 = phi ptr [ %9, %.lr.ph ], [ %.sink14, %Vec_IntPush.exit.sink.split ]
  %28 = add nsw i32 %10, 1
  store i32 %28, ptr %4, align 4, !tbaa !3
  %29 = sext i32 %10 to i64
  %30 = getelementptr inbounds i32, ptr %.pre.i13, i64 %29
  store i32 %.089, ptr %30, align 4, !tbaa !15
  %31 = getelementptr inbounds nuw %struct.Mio_Cell2_t_, ptr %0, i64 %indvars.iv, i32 2
  %32 = load i32, ptr %31, align 8
  %33 = lshr i32 %32, 28
  %34 = mul nuw nsw i32 %33, 3
  %35 = add nuw nsw i32 %.089, 3
  %36 = add nuw nsw i32 %35, %34
  %indvars.iv.next = add nuw nsw i64 %indvars.iv, 1
  %exitcond.not = icmp eq i64 %indvars.iv.next, %wide.trip.count
  br i1 %exitcond.not, label %._crit_edge, label %.lr.ph, !llvm.loop !33

._crit_edge:                                      ; preds = %Vec_IntPush.exit, %Vec_IntStartFull.exit
  ret ptr %3
}